target datalayout = "e-m:e-p270:32:32-p271:32:32-p272:64:64-i64:64-i128:128-f80:128-n8:16:32:64-S128"
target triple = "x86_64-pc-linux-gnu"

%struct.IDAMemRec = type { double, ptr, ptr, i32, double, double, ptr, i32, ptr, ptr, i32, ptr, ptr, i32, i32, double, double, ptr, i32, i32, i32, ptr, ptr, i32, ptr, ptr, ptr, i32, double, i32, i32, double, ptr, ptr, i32, ptr, ptr, i32, i32, i32, double, ptr, ptr, [6 x ptr], [6 x double], [6 x double], [6 x double], [6 x double], [6 x double], ptr, ptr, ptr, ptr, ptr, ptr, ptr, ptr, ptr, ptr, ptr, ptr, ptr, ptr, ptr, [6 x ptr], ptr, ptr, ptr, ptr, [6 x ptr], ptr, ptr, ptr, ptr, ptr, ptr, ptr, ptr, ptr, ptr, ptr, ptr, ptr, ptr, [6 x ptr], ptr, ptr, ptr, ptr, ptr, double, ptr, ptr, i32, i32, i32, i32, i32, i32, i32, double, double, double, i32, double, i32, i32, i32, i32, double, double, double, double, double, double, double, double, double, double, double, double, double, double, i32, i32, i32, i32, i32, i64, double, i32, i64, i64, i64, i64, i64, i64, i64, i64, i64, i64, i64, i64, i64, i64, i64, i64, i64, i64, i64, i64, i64, i64, i64, i64, ptr, ptr, ptr, i32, i32, i32, i32, i32, i32, i32, i32, i32, i32, i32, i32, i32, ptr, ptr, ptr, ptr, ptr, ptr, i32, i32, i32, i32, i32, i32, double, double, double, ptr, i32, ptr, ptr, double, double, double, ptr, ptr, ptr, double, double, i32, i32, i64, ptr, i32, i32, ptr, i32 }

@.str = private unnamed_addr constant [5 x i8] c"IDAS\00", align 1
@.str.4 = private unnamed_addr constant [24 x i8] c"ida_mem = NULL illegal.\00", align 1
@.str.10 = private unnamed_addr constant [34 x i8] c"Attempt to call before IDAMalloc.\00", align 1
@.str.12 = private unnamed_addr constant [18 x i8] c"rtol < 0 illegal.\00", align 1
@.str.13 = private unnamed_addr constant [35 x i8] c"Some atol component < 0.0 illegal.\00", align 1
@.str.14 = private unnamed_addr constant [16 x i8] c"IDASVtolerances\00", align 1

; Function Attrs: nounwind uwtable
define i32 @IDASVtolerances(ptr noundef %0, double noundef %1, ptr noundef %2) #0 {
  %4 = alloca i32, align 4
  %5 = alloca ptr, align 8
  %6 = alloca double, align 8
  %7 = alloca ptr, align 8
  %8 = alloca ptr, align 8
  %9 = alloca i32, align 4
  store ptr %0, ptr %5, align 8, !tbaa !91
  store double %1, ptr %6, align 8, !tbaa !92
  store ptr %2, ptr %7, align 8, !tbaa !93
  call void @llvm.lifetime.start.p0(i64 8, ptr %8) #8
  %10 = load ptr, ptr %5, align 8, !tbaa !91
  %11 = icmp eq ptr %10, null
  br i1 %11, label %12, label %13

12:                                               ; preds = %3
  call void (ptr, i32, ptr, ptr, ptr, ...) @IDAProcessError(ptr noundef null, i32 noundef -20, ptr noundef @.str, ptr noundef @.str.14, ptr noundef @.str.4)
  store i32 -20, ptr %4, align 4
  store i32 1, ptr %9, align 4
  br label %76

13:                                               ; preds = %3
  %14 = load ptr, ptr %5, align 8, !tbaa !91
  store ptr %14, ptr %8, align 8, !tbaa !3
  %15 = load ptr, ptr %8, align 8, !tbaa !3
  %16 = getelementptr inbounds nuw %struct.IDAMemRec, ptr %15, i32 0, i32 162
  %17 = load i32, ptr %16, align 8, !tbaa !78
  %18 = icmp eq i32 %17, 0
  br i1 %18, label %19, label %21

19:                                               ; preds = %13
  %20 = load ptr, ptr %8, align 8, !tbaa !3
  call void (ptr, i32, ptr, ptr, ptr, ...) @IDAProcessError(ptr noundef %20, i32 noundef -23, ptr noundef @.str, ptr noundef @.str.14, ptr noundef @.str.10)
  store i32 -23, ptr %4, align 4
  store i32 1, ptr %9, align 4
  br label %76

21:                                               ; preds = %13
  %22 = load double, ptr %6, align 8, !tbaa !92
  %23 = fcmp olt double %22, 0.000000e+00
  br i1 %23, label %24, label %26

24:                                               ; preds = %21
  %25 = load ptr, ptr %8, align 8, !tbaa !3
  call void (ptr, i32, ptr, ptr, ptr, ...) @IDAProcessError(ptr noundef %25, i32 noundef -22, ptr noundef @.str, ptr noundef @.str.14, ptr noundef @.str.12)
  store i32 -22, ptr %4, align 4
  store i32 1, ptr %9, align 4
  br label %76

26:                                               ; preds = %21
  %27 = load ptr, ptr %7, align 8, !tbaa !93
  %28 = call double @N_VMin(ptr noundef %27)
  %29 = fcmp olt double %28, 0.000000e+00
  br i1 %29, label %30, label %32

30:                                               ; preds = %26
  %31 = load ptr, ptr %8, align 8, !tbaa !3
  call void (ptr, i32, ptr, ptr, ptr, ...) @IDAProcessError(ptr noundef %31, i32 noundef -22, ptr noundef @.str, ptr noundef @.str.14, ptr noundef @.str.13)
  store i32 -22, ptr %4, align 4
  store i32 1, ptr %9, align 4
  br label %76

32:                                               ; preds = %26
  %33 = load ptr, ptr %8, align 8, !tbaa !3
  %34 = getelementptr inbounds nuw %struct.IDAMemRec, ptr %33, i32 0, i32 159
  %35 = load i32, ptr %34, align 4, !tbaa !75
  %36 = icmp ne i32 %35, 0
  br i1 %36, label %60, label %37

37:                                               ; preds = %32
  %38 = load ptr, ptr %8, align 8, !tbaa !3
  %39 = getelementptr inbounds nuw %struct.IDAMemRec, ptr %38, i32 0, i32 49
  %40 = load ptr, ptr %39, align 8, !tbaa !147
  %41 = call ptr @N_VClone(ptr noundef %40)
  %42 = load ptr, ptr %8, align 8, !tbaa !3
  %43 = getelementptr inbounds nuw %struct.IDAMemRec, ptr %42, i32 0, i32 6
  store ptr %41, ptr %43, align 8, !tbaa !157
  %44 = load ptr, ptr %8, align 8, !tbaa !3
  %45 = getelementptr inbounds nuw %struct.IDAMemRec, ptr %44, i32 0, i32 149
  %46 = load i64, ptr %45, align 8, !tbaa !104
  %47 = load ptr, ptr %8, align 8, !tbaa !3
  %48 = getelementptr inbounds nuw %struct.IDAMemRec, ptr %47, i32 0, i32 153
  %49 = load i64, ptr %48, align 8, !tbaa !73
  %50 = add nsw i64 %49, %46
  store i64 %50, ptr %48, align 8, !tbaa !73
  %51 = load ptr, ptr %8, align 8, !tbaa !3
  %52 = getelementptr inbounds nuw %struct.IDAMemRec, ptr %51, i32 0, i32 150
  %53 = load i64, ptr %52, align 8, !tbaa !105
  %54 = load ptr, ptr %8, align 8, !tbaa !3
  %55 = getelementptr inbounds nuw %struct.IDAMemRec, ptr %54, i32 0, i32 154
  %56 = load i64, ptr %55, align 8, !tbaa !74
  %57 = add nsw i64 %56, %53
  store i64 %57, ptr %55, align 8, !tbaa !74
  %58 = load ptr, ptr %8, align 8, !tbaa !3
  %59 = getelementptr inbounds nuw %struct.IDAMemRec, ptr %58, i32 0, i32 159
  store i32 1, ptr %59, align 4, !tbaa !75
  br label %60

60:                                               ; preds = %37, %32
  %61 = load double, ptr %6, align 8, !tbaa !92
  %62 = load ptr, ptr %8, align 8, !tbaa !3
  %63 = getelementptr inbounds nuw %struct.IDAMemRec, ptr %62, i32 0, i32 4
  store double %61, ptr %63, align 8, !tbaa !155
  %64 = load ptr, ptr %7, align 8, !tbaa !93
  %65 = load ptr, ptr %8, align 8, !tbaa !3
  %66 = getelementptr inbounds nuw %struct.IDAMemRec, ptr %65, i32 0, i32 6
  %67 = load ptr, ptr %66, align 8, !tbaa !157
  call void @N_VScale(double noundef 1.000000e+00, ptr noundef %64, ptr noundef %67)
  %68 = load ptr, ptr %8, align 8, !tbaa !3
  %69 = getelementptr inbounds nuw %struct.IDAMemRec, ptr %68, i32 0, i32 3
  store i32 2, ptr %69, align 8, !tbaa !21
  %70 = load ptr, ptr %8, align 8, !tbaa !3
  %71 = getelementptr inbounds nuw %struct.IDAMemRec, ptr %70, i32 0, i32 7
  store i32 0, ptr %71, align 8, !tbaa !22
  %72 = load ptr, ptr %8, align 8, !tbaa !3
  %73 = getelementptr inbounds nuw %struct.IDAMemRec, ptr %72, i32 0, i32 8
  store ptr @IDAEwtSet, ptr %73, align 8, !tbaa !23
  %74 = load ptr, ptr %8, align 8, !tbaa !3
  %75 = getelementptr inbounds nuw %struct.IDAMemRec, ptr %74, i32 0, i32 9
  store ptr null, ptr %75, align 8, !tbaa !24
  store i32 0, ptr %4, align 4
  store i32 1, ptr %9, align 4
  br label %76

76:                                               ; preds = %60, %30, %24, %19, %12
  call void @llvm.lifetime.end.p0(i64 8, ptr %8) #8
  %77 = load i32, ptr %4, align 4
  ret i32 %77
}