; Function Attrs: nounwind uwtable
define range(i32 -23, 1) i32 @IDASVtolerances(ptr noundef captures(address_is_null) %0, double noundef %1, ptr noundef %2) local_unnamed_addr #0 {
  %4 = icmp eq ptr %0, null
  br i1 %4, label %5, label %6

5:                                                ; preds = %3
  tail call void (ptr, i32, ptr, ptr, ptr, ...) @IDAProcessError(ptr noundef null, i32 noundef -20, ptr noundef nonnull @.str, ptr noundef nonnull @.str.14, ptr noundef nonnull @.str.4)
  br label %43

6:                                                ; preds = %3
  %7 = getelementptr inbounds nuw i8, ptr %0, i64 1552
  %8 = load i32, ptr %7, align 8, !tbaa !111
  %9 = icmp eq i32 %8, 0
  br i1 %9, label %10, label %11

10:                                               ; preds = %6
  tail call void (ptr, i32, ptr, ptr, ptr, ...) @IDAProcessError(ptr noundef nonnull %0, i32 noundef -23, ptr noundef nonnull @.str, ptr noundef nonnull @.str.14, ptr noundef nonnull @.str.10)
  br label %43

11:                                               ; preds = %6
  %12 = fcmp olt double %1, 0.000000e+00
  br i1 %12, label %13, label %14

13:                                               ; preds = %11
  tail call void (ptr, i32, ptr, ptr, ptr, ...) @IDAProcessError(ptr noundef nonnull %0, i32 noundef -22, ptr noundef nonnull @.str, ptr noundef nonnull @.str.14, ptr noundef nonnull @.str.12)
  br label %43

14:                                               ; preds = %11
  %15 = tail call double @N_VMin(ptr noundef %2) #13
  %16 = fcmp olt double %15, 0.000000e+00
  br i1 %16, label %17, label %18

17:                                               ; preds = %14
  tail call void (ptr, i32, ptr, ptr, ptr, ...) @IDAProcessError(ptr noundef nonnull %0, i32 noundef -22, ptr noundef nonnull @.str, ptr noundef nonnull @.str.14, ptr noundef nonnull @.str.13)
  br label %43

18:                                               ; preds = %14
  %19 = getelementptr inbounds nuw i8, ptr %0, i64 1540
  %20 = load i32, ptr %19, align 4, !tbaa !121
  %.not = icmp eq i32 %20, 0
  br i1 %.not, label %21, label %._crit_edge

._crit_edge:                                      ; preds = %18
  %.phi.trans.insert = getelementptr inbounds nuw i8, ptr %0, i64 48
  %.pre = load ptr, ptr %.phi.trans.insert, align 8, !tbaa !120
  br label %36

21:                                               ; preds = %18
  %22 = getelementptr inbounds nuw i8, ptr %0, i64 600
  %23 = load ptr, ptr %22, align 8, !tbaa !64
  %24 = tail call ptr @N_VClone(ptr noundef %23) #13
  %25 = getelementptr inbounds nuw i8, ptr %0, i64 48
  store ptr %24, ptr %25, align 8, !tbaa !120
  %26 = getelementptr inbounds nuw i8, ptr %0, i64 1464
  %27 = load i64, ptr %26, align 8, !tbaa !89
  %28 = getelementptr inbounds nuw i8, ptr %0, i64 1496
  %29 = load i64, ptr %28, align 8, !tbaa !54
  %30 = add nsw i64 %29, %27
  store i64 %30, ptr %28, align 8, !tbaa !54
  %31 = getelementptr inbounds nuw i8, ptr %0, i64 1472
  %32 = load i64, ptr %31, align 8, !tbaa !90
  %33 = getelementptr inbounds nuw i8, ptr %0, i64 1504
  %34 = load i64, ptr %33, align 8, !tbaa !55
  %35 = add nsw i64 %34, %32
  store i64 %35, ptr %33, align 8, !tbaa !55
  store i32 1, ptr %19, align 4, !tbaa !121
  br label %36

36:                                               ; preds = %._crit_edge, %21
  %37 = phi ptr [ %.pre, %._crit_edge ], [ %24, %21 ]
  %38 = getelementptr inbounds nuw i8, ptr %0, i64 32
  store double %1, ptr %38, align 8, !tbaa !58
  tail call void @N_VScale(double noundef 1.000000e+00, ptr noundef %2, ptr noundef %37) #13
  %39 = getelementptr inbounds nuw i8, ptr %0, i64 24
  store i32 2, ptr %39, align 8, !tbaa !116
  %40 = getelementptr inbounds nuw i8, ptr %0, i64 56
  store i32 0, ptr %40, align 8, !tbaa !117
  %41 = getelementptr inbounds nuw i8, ptr %0, i64 64
  store ptr @IDAEwtSet, ptr %41, align 8, !tbaa !118
  %42 = getelementptr inbounds nuw i8, ptr %0, i64 72
  store ptr null, ptr %42, align 8, !tbaa !119
  br label %43

43:                                               ; preds = %36, %17, %13, %10, %5
  %.0 = phi i32 [ -20, %5 ], [ -23, %10 ], [ -22, %13 ], [ -22, %17 ], [ 0, %36 ]
  ret i32 %.0
}